; Function Attrs: mustprogress uwtable
define noundef nonnull align 8 dereferenceable(8) ptr @_ZN8QuantLiblsERSoRKNS_12PricingErrorE(ptr noundef nonnull returned align 8 dereferenceable(8) %out, ptr nocapture noundef nonnull readonly align 8 dereferenceable(104) %error) local_unnamed_addr #3 {
entry:
  %0 = load i32, ptr %error, align 8, !tbaa !55
  switch i32 %0, label %sw.epilog [
    i32 0, label %sw.bb
    i32 1, label %sw.bb1
    i32 2, label %sw.bb3
    i32 3, label %sw.bb5
  ]

sw.bb:                                            ; preds = %entry
  %call1.i = tail call noundef nonnull align 8 dereferenceable(8) ptr @_ZSt16__ostream_insertIcSt11char_traitsIcEERSt13basic_ostreamIT_T0_ES6_PKS3_l(ptr noundef nonnull align 8 dereferenceable(8) %out, ptr noundef nonnull @.str.3, i64 noundef 6)
  br label %sw.epilog

sw.bb1:                                           ; preds = %entry
  %call1.i11 = tail call noundef nonnull align 8 dereferenceable(8) ptr @_ZSt16__ostream_insertIcSt11char_traitsIcEERSt13basic_ostreamIT_T0_ES6_PKS3_l(ptr noundef nonnull align 8 dereferenceable(8) %out, ptr noundef nonnull @.str.4, i64 noundef 9)
  br label %sw.epilog

sw.bb3:                                           ; preds = %entry
  %call1.i13 = tail call noundef nonnull align 8 dereferenceable(8) ptr @_ZSt16__ostream_insertIcSt11char_traitsIcEERSt13basic_ostreamIT_T0_ES6_PKS3_l(ptr noundef nonnull align 8 dereferenceable(8) %out, ptr noundef nonnull @.str.5, i64 noundef 11)
  br label %sw.epilog

sw.bb5:                                           ; preds = %entry
  %call1.i15 = tail call noundef nonnull align 8 dereferenceable(8) ptr @_ZSt16__ostream_insertIcSt11char_traitsIcEERSt13basic_ostreamIT_T0_ES6_PKS3_l(ptr noundef nonnull align 8 dereferenceable(8) %out, ptr noundef nonnull @.str.6, i64 noundef 11)
  br label %sw.epilog

sw.epilog:                                        ; preds = %sw.bb5, %sw.bb3, %sw.bb1, %sw.bb, %entry
  %error7 = getelementptr inbounds nuw i8, ptr %error, i64 40
  %1 = load ptr, ptr %error7, align 8, !tbaa !53
  %_M_string_length.i.i = getelementptr inbounds nuw i8, ptr %error, i64 48
  %2 = load i64, ptr %_M_string_length.i.i, align 8, !tbaa !29
  %call2.i = tail call noundef nonnull align 8 dereferenceable(8) ptr @_ZSt16__ostream_insertIcSt11char_traitsIcEERSt13basic_ostreamIT_T0_ES6_PKS3_l(ptr noundef nonnull align 8 dereferenceable(8) %out, ptr noundef %1, i64 noundef %2)
  %_M_string_length.i.i16 = getelementptr inbounds nuw i8, ptr %error, i64 80
  %3 = load i64, ptr %_M_string_length.i.i16, align 8, !tbaa !29
  %cmp.i = icmp eq i64 %3, 0
  br i1 %cmp.i, label %if.end, label %if.then

if.then:                                          ; preds = %sw.epilog
  %detail = getelementptr inbounds nuw i8, ptr %error, i64 72
  %call1.i18 = tail call noundef nonnull align 8 dereferenceable(8) ptr @_ZSt16__ostream_insertIcSt11char_traitsIcEERSt13basic_ostreamIT_T0_ES6_PKS3_l(ptr noundef nonnull align 8 dereferenceable(8) %out, ptr noundef nonnull @.str.7, i64 noundef 2)
  %4 = load ptr, ptr %detail, align 8, !tbaa !53
  %5 = load i64, ptr %_M_string_length.i.i16, align 8, !tbaa !29
  %call2.i20 = tail call noundef nonnull align 8 dereferenceable(8) ptr @_ZSt16__ostream_insertIcSt11char_traitsIcEERSt13basic_ostreamIT_T0_ES6_PKS3_l(ptr noundef nonnull align 8 dereferenceable(8) %out, ptr noundef %4, i64 noundef %5)
  br label %if.end

if.end:                                           ; preds = %if.then, %sw.epilog
  ret ptr %out
}